; Function Attrs: mustprogress uwtable
define hidden void @_ZN3smt13model_checker10restart_ehEv(ptr noundef nonnull readonly align 8 captures(none) dereferenceable(184) %0) local_unnamed_addr #4 align 2 {
  %2 = tail call noundef i32 @_Z19get_verbosity_levelv()
  %3 = icmp ugt i32 %2, 99
  br i1 %3, label %4, label %_ZN3smt13model_checker17has_new_instancesEv.exit1.thread

4:                                                ; preds = %1
  %5 = tail call noundef zeroext i1 @_Z11is_threadedv()
  br i1 %5, label %6, label %15

6:                                                ; preds = %4
  tail call void @_Z12verbose_lockv()
  %7 = getelementptr inbounds nuw i8, ptr %0, i64 136
  %8 = load ptr, ptr %7, align 8, !tbaa !68
  %9 = icmp eq ptr %8, null
  br i1 %9, label %_ZN3smt13model_checker17has_new_instancesEv.exit.thread, label %_ZN3smt13model_checker17has_new_instancesEv.exit

_ZN3smt13model_checker17has_new_instancesEv.exit: ; preds = %6
  %10 = getelementptr inbounds i8, ptr %8, i64 -4
  %11 = load i32, ptr %10, align 4, !tbaa !49
  %.not2 = icmp eq i32 %11, 0
  br i1 %.not2, label %_ZN3smt13model_checker17has_new_instancesEv.exit.thread, label %12

12:                                               ; preds = %_ZN3smt13model_checker17has_new_instancesEv.exit
  %13 = tail call noundef nonnull align 8 dereferenceable(8) ptr @_Z14verbose_streamv()
  %14 = tail call noundef nonnull align 8 dereferenceable(8) ptr @_ZSt16__ostream_insertIcSt11char_traitsIcEERSt13basic_ostreamIT_T0_ES6_PKS3_l(ptr noundef nonnull align 8 dereferenceable(8) %13, ptr noundef nonnull @.str.18, i64 noundef 44)
  br label %_ZN3smt13model_checker17has_new_instancesEv.exit.thread

_ZN3smt13model_checker17has_new_instancesEv.exit.thread: ; preds = %6, %12, %_ZN3smt13model_checker17has_new_instancesEv.exit
  tail call void @_Z14verbose_unlockv()
  br label %_ZN3smt13model_checker17has_new_instancesEv.exit1.thread

15:                                               ; preds = %4
  %16 = getelementptr inbounds nuw i8, ptr %0, i64 136
  %17 = load ptr, ptr %16, align 8, !tbaa !68
  %18 = icmp eq ptr %17, null
  br i1 %18, label %_ZN3smt13model_checker17has_new_instancesEv.exit1.thread, label %_ZN3smt13model_checker17has_new_instancesEv.exit1

_ZN3smt13model_checker17has_new_instancesEv.exit1: ; preds = %15
  %19 = getelementptr inbounds i8, ptr %17, i64 -4
  %20 = load i32, ptr %19, align 4, !tbaa !49
  %.not = icmp eq i32 %20, 0
  br i1 %.not, label %_ZN3smt13model_checker17has_new_instancesEv.exit1.thread, label %21

21:                                               ; preds = %_ZN3smt13model_checker17has_new_instancesEv.exit1
  %22 = tail call noundef nonnull align 8 dereferenceable(8) ptr @_Z14verbose_streamv()
  %23 = tail call noundef nonnull align 8 dereferenceable(8) ptr @_ZSt16__ostream_insertIcSt11char_traitsIcEERSt13basic_ostreamIT_T0_ES6_PKS3_l(ptr noundef nonnull align 8 dereferenceable(8) %22, ptr noundef nonnull @.str.18, i64 noundef 44)
  br label %_ZN3smt13model_checker17has_new_instancesEv.exit1.thread

_ZN3smt13model_checker17has_new_instancesEv.exit1.thread: ; preds = %15, %_ZN3smt13model_checker17has_new_instancesEv.exit.thread, %21, %_ZN3smt13model_checker17has_new_instancesEv.exit1, %1
  tail call void @_ZN3smt13model_checker20assert_new_instancesEv(ptr noundef nonnull align 8 dereferenceable(184) %0)
  %24 = getelementptr inbounds nuw i8, ptr %0, i64 144
  %25 = getelementptr inbounds nuw i8, ptr %0, i64 152
  %26 = load ptr, ptr %25, align 8, !tbaa !48
  %27 = icmp eq ptr %26, null
  br i1 %27, label %_ZN15ref_vector_coreI4expr19ref_manager_wrapperIS0_11ast_managerEE5resetEv.exit.i, label %_ZNK6vectorIP4exprLb0EjE4sizeEv.exit.i.i

_ZNK6vectorIP4exprLb0EjE4sizeEv.exit.i.i:         ; preds = %_ZN3smt13model_checker17has_new_instancesEv.exit1.thread
  %28 = getelementptr inbounds i8, ptr %26, i64 -4
  %29 = load i32, ptr %28, align 4, !tbaa !49
  %30 = zext i32 %29 to i64
  %31 = getelementptr inbounds nuw ptr, ptr %26, i64 %30
  %.not.i.i = icmp eq i32 %29, 0
  br i1 %.not.i.i, label %_ZN15ref_vector_coreI4expr19ref_manager_wrapperIS0_11ast_managerEE13dec_range_refEPKPS0_S7_.exit.thread4.i.i, label %.lr.ph.i.i.i

.lr.ph.i.i.i:                                     ; preds = %_ZNK6vectorIP4exprLb0EjE4sizeEv.exit.i.i, %_ZN15ref_vector_coreI4expr19ref_manager_wrapperIS0_11ast_managerEE7dec_refEPS0_.exit.i.i.i
  %.06.i.i.i = phi ptr [ %40, %_ZN15ref_vector_coreI4expr19ref_manager_wrapperIS0_11ast_managerEE7dec_refEPS0_.exit.i.i.i ], [ %26, %_ZNK6vectorIP4exprLb0EjE4sizeEv.exit.i.i ]
  %32 = load ptr, ptr %.06.i.i.i, align 8, !tbaa !50
  %33 = load ptr, ptr %24, align 8, !tbaa !52
  %.not.i.i.i.i.i.i = icmp eq ptr %32, null
  br i1 %.not.i.i.i.i.i.i, label %_ZN15ref_vector_coreI4expr19ref_manager_wrapperIS0_11ast_managerEE7dec_refEPS0_.exit.i.i.i, label %34

34:                                               ; preds = %.lr.ph.i.i.i
  %35 = getelementptr inbounds nuw i8, ptr %32, i64 8
  %36 = load i32, ptr %35, align 4, !tbaa !53
  %37 = add i32 %36, -1
  store i32 %37, ptr %35, align 4, !tbaa !53
  %38 = icmp eq i32 %37, 0
  br i1 %38, label %39, label %_ZN15ref_vector_coreI4expr19ref_manager_wrapperIS0_11ast_managerEE7dec_refEPS0_.exit.i.i.i

39:                                               ; preds = %34
  tail call void @_ZN11ast_manager11delete_nodeEP3ast(ptr noundef nonnull align 8 dereferenceable(976) %33, ptr noundef nonnull %32)
  br label %_ZN15ref_vector_coreI4expr19ref_manager_wrapperIS0_11ast_managerEE7dec_refEPS0_.exit.i.i.i

_ZN15ref_vector_coreI4expr19ref_manager_wrapperIS0_11ast_managerEE7dec_refEPS0_.exit.i.i.i: ; preds = %39, %34, %.lr.ph.i.i.i
  %40 = getelementptr inbounds nuw i8, ptr %.06.i.i.i, i64 8
  %41 = icmp ult ptr %40, %31
  br i1 %41, label %.lr.ph.i.i.i, label %_ZN15ref_vector_coreI4expr19ref_manager_wrapperIS0_11ast_managerEE13dec_range_refEPKPS0_S7_.exit.i.i, !llvm.loop !55

_ZN15ref_vector_coreI4expr19ref_manager_wrapperIS0_11ast_managerEE13dec_range_refEPKPS0_S7_.exit.i.i: ; preds = %_ZN15ref_vector_coreI4expr19ref_manager_wrapperIS0_11ast_managerEE7dec_refEPS0_.exit.i.i.i
  %.pre.i.i = load ptr, ptr %25, align 8, !tbaa !48
  %.not.i.i.i = icmp eq ptr %.pre.i.i, null
  br i1 %.not.i.i.i, label %_ZN15ref_vector_coreI4expr19ref_manager_wrapperIS0_11ast_managerEE5resetEv.exit.i, label %_ZN15ref_vector_coreI4expr19ref_manager_wrapperIS0_11ast_managerEE13dec_range_refEPKPS0_S7_.exit.thread4.i.i

_ZN15ref_vector_coreI4expr19ref_manager_wrapperIS0_11ast_managerEE13dec_range_refEPKPS0_S7_.exit.thread4.i.i: ; preds = %_ZN15ref_vector_coreI4expr19ref_manager_wrapperIS0_11ast_managerEE13dec_range_refEPKPS0_S7_.exit.i.i, %_ZNK6vectorIP4exprLb0EjE4sizeEv.exit.i.i
  %42 = phi ptr [ %.pre.i.i, %_ZN15ref_vector_coreI4expr19ref_manager_wrapperIS0_11ast_managerEE13dec_range_refEPKPS0_S7_.exit.i.i ], [ %26, %_ZNK6vectorIP4exprLb0EjE4sizeEv.exit.i.i ]
  %43 = getelementptr inbounds i8, ptr %42, i64 -4
  store i32 0, ptr %43, align 4, !tbaa !49
  br label %_ZN15ref_vector_coreI4expr19ref_manager_wrapperIS0_11ast_managerEE5resetEv.exit.i

_ZN15ref_vector_coreI4expr19ref_manager_wrapperIS0_11ast_managerEE5resetEv.exit.i: ; preds = %_ZN15ref_vector_coreI4expr19ref_manager_wrapperIS0_11ast_managerEE13dec_range_refEPKPS0_S7_.exit.thread4.i.i, %_ZN15ref_vector_coreI4expr19ref_manager_wrapperIS0_11ast_managerEE13dec_range_refEPKPS0_S7_.exit.i.i, %_ZN3smt13model_checker17has_new_instancesEv.exit1.thread
  %44 = getelementptr inbounds nuw i8, ptr %0, i64 136
  %45 = load ptr, ptr %44, align 8, !tbaa !68
  %.not.i1.i = icmp eq ptr %45, null
  br i1 %.not.i1.i, label %_ZN3smt13model_checker19reset_new_instancesEv.exit, label %46

46:                                               ; preds = %_ZN15ref_vector_coreI4expr19ref_manager_wrapperIS0_11ast_managerEE5resetEv.exit.i
  %47 = getelementptr inbounds i8, ptr %45, i64 -4
  store i32 0, ptr %47, align 4, !tbaa !49
  br label %_ZN3smt13model_checker19reset_new_instancesEv.exit

_ZN3smt13model_checker19reset_new_instancesEv.exit: ; preds = %_ZN15ref_vector_coreI4expr19ref_manager_wrapperIS0_11ast_managerEE5resetEv.exit.i, %46
  ret void
}